; Function Attrs: mustprogress uwtable
define hidden void @_ZNK4cvc58internal11Cardinality13getBethNumberEv(ptr dead_on_unwind noalias writable sret(%"class.cvc5::internal::Integer") align 8 %0, ptr noundef nonnull align 8 dereferenceable(16) %1) local_unnamed_addr #4 align 2 personality ptr @__gxx_personality_v0 {
  %3 = alloca %"class.cvc5::internal::Integer", align 8
  %4 = alloca %"class.cvc5::internal::Integer", align 8
  call void @llvm.lifetime.start.p0(i64 16, ptr nonnull %3) #15
  call void @_ZNK4cvc58internal7IntegerngEv(ptr dead_on_unwind nonnull writable sret(%"class.cvc5::internal::Integer") align 8 %3, ptr noundef nonnull align 8 dereferenceable(16) %1)
  call void @llvm.lifetime.start.p0(i64 16, ptr nonnull %4) #15
  invoke void @__gmpz_init_set_ui(ptr noundef nonnull align 8 dereferenceable(16) %4, i64 noundef 1)
          to label %_ZN4cvc58internal7IntegerC2Ei.exit unwind label %12

_ZN4cvc58internal7IntegerC2Ei.exit:               ; preds = %2
  invoke void @_ZNK4cvc58internal7IntegermiERKS1_(ptr dead_on_unwind writable sret(%"class.cvc5::internal::Integer") align 8 %0, ptr noundef nonnull align 8 dereferenceable(16) %3, ptr noundef nonnull align 8 dereferenceable(16) %4)
          to label %5 unwind label %14

5:                                                ; preds = %_ZN4cvc58internal7IntegerC2Ei.exit
  invoke void @__gmpz_clear(ptr noundef nonnull align 8 dereferenceable(16) %4)
          to label %_ZN4cvc58internal7IntegerD2Ev.exit unwind label %6

6:                                                ; preds = %5
  %7 = landingpad { ptr, i32 }
          catch ptr null
  %8 = extractvalue { ptr, i32 } %7, 0
  call void @__clang_call_terminate(ptr %8) #14
  unreachable

_ZN4cvc58internal7IntegerD2Ev.exit:               ; preds = %5
  call void @llvm.lifetime.end.p0(i64 16, ptr nonnull %4) #15
  invoke void @__gmpz_clear(ptr noundef nonnull align 8 dereferenceable(16) %3)
          to label %_ZN4cvc58internal7IntegerD2Ev.exit4 unwind label %9

9:                                                ; preds = %_ZN4cvc58internal7IntegerD2Ev.exit
  %10 = landingpad { ptr, i32 }
          catch ptr null
  %11 = extractvalue { ptr, i32 } %10, 0
  call void @__clang_call_terminate(ptr %11) #14
  unreachable

_ZN4cvc58internal7IntegerD2Ev.exit4:              ; preds = %_ZN4cvc58internal7IntegerD2Ev.exit
  call void @llvm.lifetime.end.p0(i64 16, ptr nonnull %3) #15
  ret void

12:                                               ; preds = %2
  %13 = landingpad { ptr, i32 }
          cleanup
  br label %_ZN4cvc58internal7IntegerD2Ev.exit5

14:                                               ; preds = %_ZN4cvc58internal7IntegerC2Ei.exit
  %15 = landingpad { ptr, i32 }
          cleanup
  invoke void @__gmpz_clear(ptr noundef nonnull align 8 dereferenceable(16) %4)
          to label %_ZN4cvc58internal7IntegerD2Ev.exit5 unwind label %16

16:                                               ; preds = %14
  %17 = landingpad { ptr, i32 }
          catch ptr null
  %18 = extractvalue { ptr, i32 } %17, 0
  call void @__clang_call_terminate(ptr %18) #14
  unreachable

_ZN4cvc58internal7IntegerD2Ev.exit5:              ; preds = %14, %12
  %.pn = phi { ptr, i32 } [ %13, %12 ], [ %15, %14 ]
  call void @llvm.lifetime.end.p0(i64 16, ptr nonnull %4) #15
  invoke void @__gmpz_clear(ptr noundef nonnull align 8 dereferenceable(16) %3)
          to label %_ZN4cvc58internal7IntegerD2Ev.exit6 unwind label %19

19:                                               ; preds = %_ZN4cvc58internal7IntegerD2Ev.exit5
  %20 = landingpad { ptr, i32 }
          catch ptr null
  %21 = extractvalue { ptr, i32 } %20, 0
  call void @__clang_call_terminate(ptr %21) #14
  unreachable

_ZN4cvc58internal7IntegerD2Ev.exit6:              ; preds = %_ZN4cvc58internal7IntegerD2Ev.exit5
  call void @llvm.lifetime.end.p0(i64 16, ptr nonnull %3) #15
  resume { ptr, i32 } %.pn
}